target datalayout = "e-m:e-p270:32:32-p271:32:32-p272:64:64-i64:64-i128:128-f80:128-n8:16:32:64-S128"
target triple = "x86_64-pc-linux-gnu"

%struct.Abc_Ntk_t_ = type { i32, i32, ptr, ptr, ptr, ptr, ptr, ptr, ptr, ptr, ptr, ptr, ptr, [11 x i32], i32, i32, i32, i32, ptr, i32, ptr, ptr, i32, i32, i32, double, i32, %struct.Vec_Int_t_, ptr, ptr, ptr, ptr, ptr, float, i32, ptr, ptr, ptr, ptr, ptr, ptr, ptr, ptr, ptr, ptr, ptr, ptr, ptr, ptr, ptr, ptr, ptr, ptr, ptr, ptr, ptr }
%struct.Vec_Int_t_ = type { i32, i32, ptr }
%struct.Abc_Obj_t_ = type { ptr, ptr, i32, i32, %struct.Vec_Int_t_, %struct.Vec_Int_t_, %union.anon, %union.anon.0 }
%union.anon = type { ptr }
%union.anon.0 = type { ptr }
%struct.Vec_Ptr_t_ = type { i32, i32, ptr }

; Function Attrs: nounwind uwtable
define internal void @Vec_IntGrow(ptr noundef %0, i32 noundef %1) #0 {
  %3 = alloca ptr, align 8
  %4 = alloca i32, align 4
  store ptr %0, ptr %3, align 8
  store i32 %1, ptr %4, align 4
  %5 = load ptr, ptr %3, align 8
  %6 = getelementptr inbounds %struct.Vec_Int_t_, ptr %5, i32 0, i32 0
  %7 = load i32, ptr %6, align 8
  %8 = load i32, ptr %4, align 4
  %9 = icmp sge i32 %7, %8
  br i1 %9, label %10, label %11

10:                                               ; preds = %2
  br label %36

11:                                               ; preds = %2
  %12 = load ptr, ptr %3, align 8
  %13 = getelementptr inbounds %struct.Vec_Int_t_, ptr %12, i32 0, i32 2
  %14 = load ptr, ptr %13, align 8
  %15 = icmp ne ptr %14, null
  br i1 %15, label %16, label %24

16:                                               ; preds = %11
  %17 = load ptr, ptr %3, align 8
  %18 = getelementptr inbounds %struct.Vec_Int_t_, ptr %17, i32 0, i32 2
  %19 = load ptr, ptr %18, align 8
  %20 = load i32, ptr %4, align 4
  %21 = sext i32 %20 to i64
  %22 = mul i64 4, %21
  %23 = call ptr @realloc(ptr noundef %19, i64 noundef %22) #14
  br label %29

24:                                               ; preds = %11
  %25 = load i32, ptr %4, align 4
  %26 = sext i32 %25 to i64
  %27 = mul i64 4, %26
  %28 = call noalias ptr @malloc(i64 noundef %27) #13
  br label %29

29:                                               ; preds = %24, %16
  %30 = phi ptr [ %23, %16 ], [ %28, %24 ]
  %31 = load ptr, ptr %3, align 8
  %32 = getelementptr inbounds %struct.Vec_Int_t_, ptr %31, i32 0, i32 2
  store ptr %30, ptr %32, align 8
  %33 = load i32, ptr %4, align 4
  %34 = load ptr, ptr %3, align 8
  %35 = getelementptr inbounds %struct.Vec_Int_t_, ptr %34, i32 0, i32 0
  store i32 %33, ptr %35, align 8
  br label %36

36:                                               ; preds = %29, %10
  ret void
}

; Function Attrs: nounwind uwtable
define internal ptr @Vec_PtrEntry(ptr noundef %0, i32 noundef %1) #0 {
  %3 = alloca ptr, align 8
  %4 = alloca i32, align 4
  store ptr %0, ptr %3, align 8
  store i32 %1, ptr %4, align 4
  %5 = load ptr, ptr %3, align 8
  %6 = getelementptr inbounds %struct.Vec_Ptr_t_, ptr %5, i32 0, i32 2
  %7 = load ptr, ptr %6, align 8
  %8 = load i32, ptr %4, align 4
  %9 = sext i32 %8 to i64
  %10 = getelementptr inbounds ptr, ptr %7, i64 %9
  %11 = load ptr, ptr %10, align 8
  ret ptr %11
}

; Function Attrs: nounwind uwtable
define internal void @Vec_IntWriteEntry(ptr noundef %0, i32 noundef %1, i32 noundef %2) #0 {
  %4 = alloca ptr, align 8
  %5 = alloca i32, align 4
  %6 = alloca i32, align 4
  store ptr %0, ptr %4, align 8
  store i32 %1, ptr %5, align 4
  store i32 %2, ptr %6, align 4
  %7 = load i32, ptr %6, align 4
  %8 = load ptr, ptr %4, align 8
  %9 = getelementptr inbounds %struct.Vec_Int_t_, ptr %8, i32 0, i32 2
  %10 = load ptr, ptr %9, align 8
  %11 = load i32, ptr %5, align 4
  %12 = sext i32 %11 to i64
  %13 = getelementptr inbounds i32, ptr %10, i64 %12
  store i32 %7, ptr %13, align 4
  ret void
}

; Function Attrs: nounwind uwtable
define internal i32 @Vec_IntAddToEntry(ptr noundef %0, i32 noundef %1, i32 noundef %2) #0 {
  %4 = alloca ptr, align 8
  %5 = alloca i32, align 4
  %6 = alloca i32, align 4
  store ptr %0, ptr %4, align 8
  store i32 %1, ptr %5, align 4
  store i32 %2, ptr %6, align 4
  %7 = load i32, ptr %6, align 4
  %8 = load ptr, ptr %4, align 8
  %9 = getelementptr inbounds %struct.Vec_Int_t_, ptr %8, i32 0, i32 2
  %10 = load ptr, ptr %9, align 8
  %11 = load i32, ptr %5, align 4
  %12 = sext i32 %11 to i64
  %13 = getelementptr inbounds i32, ptr %10, i64 %12
  %14 = load i32, ptr %13, align 4
  %15 = add nsw i32 %14, %7
  store i32 %15, ptr %13, align 4
  ret i32 %15
}

; Function Attrs: nounwind uwtable
define internal void @Vec_IntFill(ptr noundef %0, i32 noundef %1, i32 noundef %2) #0 {
  %4 = alloca ptr, align 8
  %5 = alloca i32, align 4
  %6 = alloca i32, align 4
  %7 = alloca i32, align 4
  store ptr %0, ptr %4, align 8
  store i32 %1, ptr %5, align 4
  store i32 %2, ptr %6, align 4
  %8 = load ptr, ptr %4, align 8
  %9 = load i32, ptr %5, align 4
  call void @Vec_IntGrow(ptr noundef %8, i32 noundef %9)
  store i32 0, ptr %7, align 4
  br label %10

10:                                               ; preds = %22, %3
  %11 = load i32, ptr %7, align 4
  %12 = load i32, ptr %5, align 4
  %13 = icmp slt i32 %11, %12
  br i1 %13, label %14, label %25

14:                                               ; preds = %10
  %15 = load i32, ptr %6, align 4
  %16 = load ptr, ptr %4, align 8
  %17 = getelementptr inbounds %struct.Vec_Int_t_, ptr %16, i32 0, i32 2
  %18 = load ptr, ptr %17, align 8
  %19 = load i32, ptr %7, align 4
  %20 = sext i32 %19 to i64
  %21 = getelementptr inbounds i32, ptr %18, i64 %20
  store i32 %15, ptr %21, align 4
  br label %22

22:                                               ; preds = %14
  %23 = load i32, ptr %7, align 4
  %24 = add nsw i32 %23, 1
  store i32 %24, ptr %7, align 4
  br label %10, !llvm.loop !24

25:                                               ; preds = %10
  %26 = load i32, ptr %5, align 4
  %27 = load ptr, ptr %4, align 8
  %28 = getelementptr inbounds %struct.Vec_Int_t_, ptr %27, i32 0, i32 1
  store i32 %26, ptr %28, align 4
  ret void
}

; Function Attrs: nounwind uwtable
define internal i32 @Abc_ObjFanoutNum(ptr noundef %0) #0 {
  %2 = alloca ptr, align 8
  store ptr %0, ptr %2, align 8
  %3 = load ptr, ptr %2, align 8
  %4 = getelementptr inbounds %struct.Abc_Obj_t_, ptr %3, i32 0, i32 5
  %5 = getelementptr inbounds %struct.Vec_Int_t_, ptr %4, i32 0, i32 1
  %6 = load i32, ptr %5, align 4
  ret i32 %6
}

; Function Attrs: nounwind uwtable
define internal i32 @Abc_MaxInt(i32 noundef %0, i32 noundef %1) #0 {
  %3 = alloca i32, align 4
  %4 = alloca i32, align 4
  store i32 %0, ptr %3, align 4
  store i32 %1, ptr %4, align 4
  %5 = load i32, ptr %3, align 4
  %6 = load i32, ptr %4, align 4
  %7 = icmp sgt i32 %5, %6
  br i1 %7, label %8, label %10

8:                                                ; preds = %2
  %9 = load i32, ptr %3, align 4
  br label %12

10:                                               ; preds = %2
  %11 = load i32, ptr %4, align 4
  br label %12

12:                                               ; preds = %10, %8
  %13 = phi i32 [ %9, %8 ], [ %11, %10 ]
  ret i32 %13
}

; Function Attrs: nounwind uwtable
define internal i32 @Abc_ObjFaninNum(ptr noundef %0) #0 {
  %2 = alloca ptr, align 8
  store ptr %0, ptr %2, align 8
  %3 = load ptr, ptr %2, align 8
  %4 = getelementptr inbounds %struct.Abc_Obj_t_, ptr %3, i32 0, i32 4
  %5 = getelementptr inbounds %struct.Vec_Int_t_, ptr %4, i32 0, i32 1
  %6 = load i32, ptr %5, align 4
  ret i32 %6
}

; Function Attrs: nounwind uwtable
define internal ptr @Abc_NtkObj(ptr noundef %0, i32 noundef %1) #0 {
  %3 = alloca ptr, align 8
  %4 = alloca i32, align 4
  store ptr %0, ptr %3, align 8
  store i32 %1, ptr %4, align 4
  %5 = load ptr, ptr %3, align 8
  %6 = getelementptr inbounds %struct.Abc_Ntk_t_, ptr %5, i32 0, i32 5
  %7 = load ptr, ptr %6, align 8
  %8 = load i32, ptr %4, align 4
  %9 = call ptr @Vec_PtrEntry(ptr noundef %7, i32 noundef %8)
  ret ptr %9
}

; Function Attrs: nounwind uwtable
define internal i32 @Vec_PtrSize(ptr noundef %0) #0 {
  %2 = alloca ptr, align 8
  store ptr %0, ptr %2, align 8
  %3 = load ptr, ptr %2, align 8
  %4 = getelementptr inbounds %struct.Vec_Ptr_t_, ptr %3, i32 0, i32 1
  %5 = load i32, ptr %4, align 4
  ret i32 %5
}

; Function Attrs: nounwind uwtable
define void @Abc_NtkFaninFanoutCounters(ptr noundef %0, ptr noundef %1, ptr noundef %2, ptr noundef %3, ptr noundef %4) #0 {
  %6 = alloca ptr, align 8
  %7 = alloca ptr, align 8
  %8 = alloca ptr, align 8
  %9 = alloca ptr, align 8
  %10 = alloca ptr, align 8
  %11 = alloca ptr, align 8
  %12 = alloca i32, align 4
  %13 = alloca i32, align 4
  %14 = alloca i32, align 4
  %15 = alloca i32, align 4
  %16 = alloca i32, align 4
  store ptr %0, ptr %6, align 8
  store ptr %1, ptr %7, align 8
  store ptr %2, ptr %8, align 8
  store ptr %3, ptr %9, align 8
  store ptr %4, ptr %10, align 8
  store i32 0, ptr %15, align 4
  store i32 0, ptr %16, align 4
  store i32 0, ptr %12, align 4
  br label %17

17:                                               ; preds = %44, %5
  %18 = load i32, ptr %12, align 4
  %19 = load ptr, ptr %6, align 8
  %20 = getelementptr inbounds %struct.Abc_Ntk_t_, ptr %19, i32 0, i32 5
  %21 = load ptr, ptr %20, align 8
  %22 = call i32 @Vec_PtrSize(ptr noundef %21)
  %23 = icmp slt i32 %18, %22
  br i1 %23, label %24, label %28

24:                                               ; preds = %17
  %25 = load ptr, ptr %6, align 8
  %26 = load i32, ptr %12, align 4
  %27 = call ptr @Abc_NtkObj(ptr noundef %25, i32 noundef %26)
  store ptr %27, ptr %11, align 8
  br label %28

28:                                               ; preds = %24, %17
  %29 = phi i1 [ false, %17 ], [ true, %24 ]
  br i1 %29, label %30, label %47

30:                                               ; preds = %28
  %31 = load ptr, ptr %11, align 8
  %32 = icmp eq ptr %31, null
  br i1 %32, label %33, label %34

33:                                               ; preds = %30
  br label %43

34:                                               ; preds = %30
  %35 = load i32, ptr %15, align 4
  %36 = load ptr, ptr %11, align 8
  %37 = call i32 @Abc_ObjFaninNum(ptr noundef %36)
  %38 = call i32 @Abc_MaxInt(i32 noundef %35, i32 noundef %37)
  store i32 %38, ptr %15, align 4
  %39 = load i32, ptr %16, align 4
  %40 = load ptr, ptr %11, align 8
  %41 = call i32 @Abc_ObjFanoutNum(ptr noundef %40)
  %42 = call i32 @Abc_MaxInt(i32 noundef %39, i32 noundef %41)
  store i32 %42, ptr %16, align 4
  br label %43

43:                                               ; preds = %34, %33
  br label %44

44:                                               ; preds = %43
  %45 = load i32, ptr %12, align 4
  %46 = add nsw i32 %45, 1
  store i32 %46, ptr %12, align 4
  br label %17, !llvm.loop !22

47:                                               ; preds = %28
  %48 = load ptr, ptr %7, align 8
  %49 = load i32, ptr %15, align 4
  %50 = add nsw i32 %49, 1
  call void @Vec_IntFill(ptr noundef %48, i32 noundef %50, i32 noundef 0)
  %51 = load ptr, ptr %8, align 8
  %52 = load i32, ptr %16, align 4
  %53 = add nsw i32 %52, 1
  call void @Vec_IntFill(ptr noundef %51, i32 noundef %53, i32 noundef 0)
  %54 = load ptr, ptr %9, align 8
  %55 = load i32, ptr %15, align 4
  %56 = add nsw i32 %55, 1
  call void @Vec_IntFill(ptr noundef %54, i32 noundef %56, i32 noundef 0)
  %57 = load ptr, ptr %10, align 8
  %58 = load i32, ptr %16, align 4
  %59 = add nsw i32 %58, 1
  call void @Vec_IntFill(ptr noundef %57, i32 noundef %59, i32 noundef 0)
  %60 = load ptr, ptr %6, align 8
  %61 = getelementptr inbounds %struct.Abc_Ntk_t_, ptr %60, i32 0, i32 5
  %62 = load ptr, ptr %61, align 8
  %63 = call i32 @Vec_PtrSize(ptr noundef %62)
  %64 = sub nsw i32 %63, 1
  store i32 %64, ptr %12, align 4
  br label %65

65:                                               ; preds = %96, %47
  %66 = load i32, ptr %12, align 4
  %67 = icmp sge i32 %66, 0
  br i1 %67, label %68, label %72

68:                                               ; preds = %65
  %69 = load ptr, ptr %6, align 8
  %70 = load i32, ptr %12, align 4
  %71 = call ptr @Abc_NtkObj(ptr noundef %69, i32 noundef %70)
  store ptr %71, ptr %11, align 8
  br label %72

72:                                               ; preds = %68, %65
  %73 = phi i1 [ false, %65 ], [ true, %68 ]
  br i1 %73, label %74, label %99

74:                                               ; preds = %72
  %75 = load ptr, ptr %11, align 8
  %76 = icmp eq ptr %75, null
  br i1 %76, label %77, label %78

77:                                               ; preds = %74
  br label %95

78:                                               ; preds = %74
  %79 = load ptr, ptr %11, align 8
  %80 = call i32 @Abc_ObjFaninNum(ptr noundef %79)
  store i32 %80, ptr %13, align 4
  %81 = load ptr, ptr %11, align 8
  %82 = call i32 @Abc_ObjFanoutNum(ptr noundef %81)
  store i32 %82, ptr %14, align 4
  %83 = load ptr, ptr %7, align 8
  %84 = load i32, ptr %13, align 4
  %85 = call i32 @Vec_IntAddToEntry(ptr noundef %83, i32 noundef %84, i32 noundef 1)
  %86 = load ptr, ptr %8, align 8
  %87 = load i32, ptr %14, align 4
  %88 = call i32 @Vec_IntAddToEntry(ptr noundef %86, i32 noundef %87, i32 noundef 1)
  %89 = load ptr, ptr %9, align 8
  %90 = load i32, ptr %13, align 4
  %91 = load i32, ptr %12, align 4
  call void @Vec_IntWriteEntry(ptr noundef %89, i32 noundef %90, i32 noundef %91)
  %92 = load ptr, ptr %10, align 8
  %93 = load i32, ptr %14, align 4
  %94 = load i32, ptr %12, align 4
  call void @Vec_IntWriteEntry(ptr noundef %92, i32 noundef %93, i32 noundef %94)
  br label %95

95:                                               ; preds = %78, %77
  br label %96

96:                                               ; preds = %95
  %97 = load i32, ptr %12, align 4
  %98 = add nsw i32 %97, -1
  store i32 %98, ptr %12, align 4
  br label %65, !llvm.loop !23

99:                                               ; preds = %72
  ret void
}