; Function Attrs: nounwind uwtable
define void @Abc_NtkFaninFanoutCounters(ptr noundef readonly captures(none) %0, ptr noundef captures(none) %1, ptr noundef captures(none) %2, ptr noundef captures(none) %3, ptr noundef captures(none) %4) local_unnamed_addr #0 {
  %6 = getelementptr inbounds nuw i8, ptr %0, i64 32
  %7 = load ptr, ptr %6, align 8
  %8 = getelementptr i8, ptr %7, i64 4
  %.val43 = load i32, ptr %8, align 4
  %9 = icmp sgt i32 %.val43, 0
  br i1 %9, label %.lr.ph, label %.critedge

.lr.ph:                                           ; preds = %5
  %10 = getelementptr i8, ptr %7, i64 8
  %.val45.val = load ptr, ptr %10, align 8
  %wide.trip.count = zext nneg i32 %.val43 to i64
  br label %11

11:                                               ; preds = %.lr.ph, %20
  %indvars.iv = phi i64 [ 0, %.lr.ph ], [ %indvars.iv.next, %20 ]
  %.083 = phi i32 [ 0, %.lr.ph ], [ %.1, %20 ]
  %.03782 = phi i32 [ 0, %.lr.ph ], [ %.138, %20 ]
  %12 = getelementptr inbounds nuw ptr, ptr %.val45.val, i64 %indvars.iv
  %13 = load ptr, ptr %12, align 8
  %14 = icmp eq ptr %13, null
  br i1 %14, label %20, label %15

15:                                               ; preds = %11
  %16 = getelementptr i8, ptr %13, i64 28
  %.val49 = load i32, ptr %16, align 4
  %17 = tail call noundef i32 @llvm.smax.i32(i32 %.03782, i32 %.val49)
  %18 = getelementptr i8, ptr %13, i64 44
  %.val47 = load i32, ptr %18, align 4
  %19 = tail call noundef i32 @llvm.smax.i32(i32 %.083, i32 %.val47)
  br label %20

20:                                               ; preds = %15, %11
  %.138 = phi i32 [ %.03782, %11 ], [ %17, %15 ]
  %.1 = phi i32 [ %.083, %11 ], [ %19, %15 ]
  %indvars.iv.next = add nuw nsw i64 %indvars.iv, 1
  %exitcond.not = icmp eq i64 %indvars.iv.next, %wide.trip.count
  br i1 %exitcond.not, label %.critedge, label %11, !llvm.loop !21

.critedge:                                        ; preds = %20, %5
  %.037.lcssa = phi i32 [ 0, %5 ], [ %.138, %20 ]
  %.0.lcssa = phi i32 [ 0, %5 ], [ %.1, %20 ]
  %21 = add nuw nsw i32 %.037.lcssa, 1
  %22 = load i32, ptr %1, align 8
  %.not.i.i.not = icmp sgt i32 %22, %.037.lcssa
  br i1 %.not.i.i.not, label %.lr.ph.i, label %23

23:                                               ; preds = %.critedge
  %24 = getelementptr inbounds nuw i8, ptr %1, i64 8
  %25 = load ptr, ptr %24, align 8
  %.not9.i.i = icmp eq ptr %25, null
  %26 = zext nneg i32 %21 to i64
  %27 = shl nuw nsw i64 %26, 2
  br i1 %.not9.i.i, label %30, label %28

28:                                               ; preds = %23
  %29 = tail call ptr @realloc(ptr noundef nonnull %25, i64 noundef %27) #22
  br label %32

30:                                               ; preds = %23
  %31 = tail call noalias ptr @malloc(i64 noundef %27) #21
  br label %32

32:                                               ; preds = %30, %28
  %33 = phi ptr [ %29, %28 ], [ %31, %30 ]
  store ptr %33, ptr %24, align 8
  store i32 %21, ptr %1, align 8
  br label %.lr.ph.i

.lr.ph.i:                                         ; preds = %.critedge, %32
  %34 = getelementptr inbounds nuw i8, ptr %1, i64 8
  %wide.trip.count.i = zext nneg i32 %21 to i64
  br label %35

35:                                               ; preds = %35, %.lr.ph.i
  %indvars.iv.i = phi i64 [ 0, %.lr.ph.i ], [ %indvars.iv.next.i, %35 ]
  %36 = load ptr, ptr %34, align 8
  %37 = getelementptr inbounds nuw i32, ptr %36, i64 %indvars.iv.i
  store i32 0, ptr %37, align 4
  %indvars.iv.next.i = add nuw nsw i64 %indvars.iv.i, 1
  %exitcond.not.i = icmp eq i64 %indvars.iv.next.i, %wide.trip.count.i
  br i1 %exitcond.not.i, label %Vec_IntFill.exit, label %35, !llvm.loop !22

Vec_IntFill.exit:                                 ; preds = %35
  %38 = getelementptr inbounds nuw i8, ptr %1, i64 4
  store i32 %21, ptr %38, align 4
  %39 = add nuw nsw i32 %.0.lcssa, 1
  %40 = load i32, ptr %2, align 8
  %.not.i.i54.not = icmp sgt i32 %40, %.0.lcssa
  br i1 %.not.i.i54.not, label %.lr.ph.i56, label %41

41:                                               ; preds = %Vec_IntFill.exit
  %42 = getelementptr inbounds nuw i8, ptr %2, i64 8
  %43 = load ptr, ptr %42, align 8
  %.not9.i.i61 = icmp eq ptr %43, null
  %44 = zext nneg i32 %39 to i64
  %45 = shl nuw nsw i64 %44, 2
  br i1 %.not9.i.i61, label %48, label %46

46:                                               ; preds = %41
  %47 = tail call ptr @realloc(ptr noundef nonnull %43, i64 noundef %45) #22
  br label %50

48:                                               ; preds = %41
  %49 = tail call noalias ptr @malloc(i64 noundef %45) #21
  br label %50

50:                                               ; preds = %48, %46
  %51 = phi ptr [ %47, %46 ], [ %49, %48 ]
  store ptr %51, ptr %42, align 8
  store i32 %39, ptr %2, align 8
  br label %.lr.ph.i56

.lr.ph.i56:                                       ; preds = %Vec_IntFill.exit, %50
  %52 = getelementptr inbounds nuw i8, ptr %2, i64 8
  %wide.trip.count.i57 = zext nneg i32 %39 to i64
  br label %53

53:                                               ; preds = %53, %.lr.ph.i56
  %indvars.iv.i58 = phi i64 [ 0, %.lr.ph.i56 ], [ %indvars.iv.next.i59, %53 ]
  %54 = load ptr, ptr %52, align 8
  %55 = getelementptr inbounds nuw i32, ptr %54, i64 %indvars.iv.i58
  store i32 0, ptr %55, align 4
  %indvars.iv.next.i59 = add nuw nsw i64 %indvars.iv.i58, 1
  %exitcond.not.i60 = icmp eq i64 %indvars.iv.next.i59, %wide.trip.count.i57
  br i1 %exitcond.not.i60, label %Vec_IntFill.exit62, label %53, !llvm.loop !22

Vec_IntFill.exit62:                               ; preds = %53
  %56 = getelementptr inbounds nuw i8, ptr %2, i64 4
  store i32 %39, ptr %56, align 4
  %57 = load i32, ptr %3, align 8
  %.not.i.i63.not = icmp sgt i32 %57, %.037.lcssa
  br i1 %.not.i.i63.not, label %.lr.ph.i65, label %58

58:                                               ; preds = %Vec_IntFill.exit62
  %59 = getelementptr inbounds nuw i8, ptr %3, i64 8
  %60 = load ptr, ptr %59, align 8
  %.not9.i.i70 = icmp eq ptr %60, null
  %61 = zext nneg i32 %21 to i64
  %62 = shl nuw nsw i64 %61, 2
  br i1 %.not9.i.i70, label %65, label %63

63:                                               ; preds = %58
  %64 = tail call ptr @realloc(ptr noundef nonnull %60, i64 noundef %62) #22
  br label %67

65:                                               ; preds = %58
  %66 = tail call noalias ptr @malloc(i64 noundef %62) #21
  br label %67

67:                                               ; preds = %65, %63
  %68 = phi ptr [ %64, %63 ], [ %66, %65 ]
  store ptr %68, ptr %59, align 8
  store i32 %21, ptr %3, align 8
  br label %.lr.ph.i65

.lr.ph.i65:                                       ; preds = %Vec_IntFill.exit62, %67
  %69 = getelementptr inbounds nuw i8, ptr %3, i64 8
  %wide.trip.count.i66 = zext nneg i32 %21 to i64
  br label %70

70:                                               ; preds = %70, %.lr.ph.i65
  %indvars.iv.i67 = phi i64 [ 0, %.lr.ph.i65 ], [ %indvars.iv.next.i68, %70 ]
  %71 = load ptr, ptr %69, align 8
  %72 = getelementptr inbounds nuw i32, ptr %71, i64 %indvars.iv.i67
  store i32 0, ptr %72, align 4
  %indvars.iv.next.i68 = add nuw nsw i64 %indvars.iv.i67, 1
  %exitcond.not.i69 = icmp eq i64 %indvars.iv.next.i68, %wide.trip.count.i66
  br i1 %exitcond.not.i69, label %Vec_IntFill.exit71, label %70, !llvm.loop !22

Vec_IntFill.exit71:                               ; preds = %70
  %73 = getelementptr inbounds nuw i8, ptr %3, i64 4
  store i32 %21, ptr %73, align 4
  %74 = load i32, ptr %4, align 8
  %.not.i.i72.not = icmp sgt i32 %74, %.0.lcssa
  br i1 %.not.i.i72.not, label %.lr.ph.i74, label %75

75:                                               ; preds = %Vec_IntFill.exit71
  %76 = getelementptr inbounds nuw i8, ptr %4, i64 8
  %77 = load ptr, ptr %76, align 8
  %.not9.i.i79 = icmp eq ptr %77, null
  %78 = zext nneg i32 %39 to i64
  %79 = shl nuw nsw i64 %78, 2
  br i1 %.not9.i.i79, label %82, label %80

80:                                               ; preds = %75
  %81 = tail call ptr @realloc(ptr noundef nonnull %77, i64 noundef %79) #22
  br label %84

82:                                               ; preds = %75
  %83 = tail call noalias ptr @malloc(i64 noundef %79) #21
  br label %84

84:                                               ; preds = %82, %80
  %85 = phi ptr [ %81, %80 ], [ %83, %82 ]
  store ptr %85, ptr %76, align 8
  store i32 %39, ptr %4, align 8
  br label %.lr.ph.i74

.lr.ph.i74:                                       ; preds = %Vec_IntFill.exit71, %84
  %86 = getelementptr inbounds nuw i8, ptr %4, i64 8
  %wide.trip.count.i75 = zext nneg i32 %39 to i64
  br label %87

87:                                               ; preds = %87, %.lr.ph.i74
  %indvars.iv.i76 = phi i64 [ 0, %.lr.ph.i74 ], [ %indvars.iv.next.i77, %87 ]
  %88 = load ptr, ptr %86, align 8
  %89 = getelementptr inbounds nuw i32, ptr %88, i64 %indvars.iv.i76
  store i32 0, ptr %89, align 4
  %indvars.iv.next.i77 = add nuw nsw i64 %indvars.iv.i76, 1
  %exitcond.not.i78 = icmp eq i64 %indvars.iv.next.i77, %wide.trip.count.i75
  br i1 %exitcond.not.i78, label %Vec_IntFill.exit80, label %87, !llvm.loop !22

Vec_IntFill.exit80:                               ; preds = %87
  %90 = getelementptr inbounds nuw i8, ptr %4, i64 4
  store i32 %39, ptr %90, align 4
  %91 = load ptr, ptr %6, align 8
  %92 = getelementptr i8, ptr %91, i64 4
  %.val = load i32, ptr %92, align 4
  %93 = icmp sgt i32 %.val, 0
  br i1 %93, label %.lr.ph87, label %.critedge2

.lr.ph87:                                         ; preds = %Vec_IntFill.exit80
  %94 = getelementptr i8, ptr %1, i64 8
  %95 = getelementptr i8, ptr %2, i64 8
  %96 = getelementptr i8, ptr %3, i64 8
  %97 = getelementptr i8, ptr %4, i64 8
  %98 = zext nneg i32 %.val to i64
  br label %99

99:                                               ; preds = %.lr.ph87, %118
  %indvars.iv89 = phi i64 [ %98, %.lr.ph87 ], [ %indvars.iv.next90, %118 ]
  %indvars.iv.next90 = add nsw i64 %indvars.iv89, -1
  %.val44 = load ptr, ptr %6, align 8
  %100 = getelementptr i8, ptr %.val44, i64 8
  %.val44.val = load ptr, ptr %100, align 8
  %101 = getelementptr inbounds nuw ptr, ptr %.val44.val, i64 %indvars.iv.next90
  %102 = load ptr, ptr %101, align 8
  %103 = icmp eq ptr %102, null
  br i1 %103, label %118, label %104

104:                                              ; preds = %99
  %105 = getelementptr i8, ptr %102, i64 28
  %.val48 = load i32, ptr %105, align 4
  %106 = getelementptr i8, ptr %102, i64 44
  %.val46 = load i32, ptr %106, align 4
  %.val50 = load ptr, ptr %94, align 8
  %107 = sext i32 %.val48 to i64
  %108 = getelementptr inbounds i32, ptr %.val50, i64 %107
  %109 = load i32, ptr %108, align 4
  %110 = add nsw i32 %109, 1
  store i32 %110, ptr %108, align 4
  %.val51 = load ptr, ptr %95, align 8
  %111 = sext i32 %.val46 to i64
  %112 = getelementptr inbounds i32, ptr %.val51, i64 %111
  %113 = load i32, ptr %112, align 4
  %114 = add nsw i32 %113, 1
  store i32 %114, ptr %112, align 4
  %.val52 = load ptr, ptr %96, align 8
  %115 = getelementptr inbounds i32, ptr %.val52, i64 %107
  %116 = trunc nuw nsw i64 %indvars.iv.next90 to i32
  store i32 %116, ptr %115, align 4
  %.val53 = load ptr, ptr %97, align 8
  %117 = getelementptr inbounds i32, ptr %.val53, i64 %111
  store i32 %116, ptr %117, align 4
  br label %118

118:                                              ; preds = %104, %99
  %119 = icmp samesign ugt i64 %indvars.iv89, 1
  br i1 %119, label %99, label %.critedge2, !llvm.loop !23

.critedge2:                                       ; preds = %118, %Vec_IntFill.exit80
  ret void
}